; Function Attrs: nounwind uwtable
define noundef i32 @H5O_loc_copy(ptr nocapture noundef %0, ptr nocapture noundef %1, i32 noundef %2) local_unnamed_addr #1 {
  %4 = icmp eq i32 %2, 0
  br i1 %4, label %5, label %7

5:                                                ; preds = %3
  tail call void @llvm.memcpy.p0.p0.i64(ptr noundef nonnull writeonly align 8 dereferenceable(24) %0, ptr noundef nonnull align 8 dereferenceable(24) %1, i64 24, i1 false)
  tail call void @llvm.memset.p0.i64(ptr noundef nonnull writeonly align 8 dereferenceable(24) %1, i8 0, i64 24, i1 false)
  %6 = getelementptr inbounds i8, ptr %1, i64 8
  store i64 -1, ptr %6, align 8
  br label %H5O_loc_copy_deep.exit

7:                                                ; preds = %3
  tail call void @llvm.memcpy.p0.p0.i64(ptr noundef nonnull align 8 dereferenceable(24) %0, ptr noundef nonnull readonly align 8 dereferenceable(24) %1, i64 24, i1 false)
  %8 = getelementptr inbounds i8, ptr %1, i64 16
  %9 = load i8, ptr %8, align 8
  %10 = trunc i8 %9 to i1
  br i1 %10, label %11, label %H5O_loc_copy_deep.exit

11:                                               ; preds = %7
  %12 = load ptr, ptr %0, align 8
  %13 = tail call i32 @H5F_incr_nopen_objs(ptr noundef %12) #11
  br label %H5O_loc_copy_deep.exit

H5O_loc_copy_deep.exit:                           ; preds = %11, %7, %5
  ret i32 0
}